target datalayout = "e-m:e-p270:32:32-p271:32:32-p272:64:64-i64:64-i128:128-f80:128-n8:16:32:64-S128"
target triple = "x86_64-pc-linux-gnu"

%struct.lua_State = type { %struct.GCRef, i8, i8, i8, i8, %struct.MRef, %struct.GCRef, ptr, ptr, %struct.MRef, %struct.MRef, %struct.GCRef, %struct.GCRef, ptr, i32 }
%struct.MRef = type { i64 }
%struct.GCRef = type { i64 }
%union.TValue = type { i64 }
%struct.GChead = type { %struct.GCRef, i8, i8, i8, i8, %struct.GCRef, %struct.GCRef, %struct.GCRef }
%struct.GCfuncC = type { %struct.GCRef, i8, i8, i8, i8, %struct.GCRef, %struct.GCRef, %struct.MRef, ptr, [1 x %union.TValue] }
%struct.GCfuncL = type { %struct.GCRef, i8, i8, i8, i8, %struct.GCRef, %struct.GCRef, %struct.MRef, [1 x %struct.GCRef] }

@.str.4 = private unnamed_addr constant [24 x i8] c"store to dead GC object\00", align 1

; Function Attrs: alwaysinline nounwind uwtable
define internal void @checklivetv(ptr noundef %0, ptr noundef %1, ptr noundef %2) #1 {
  %4 = alloca ptr, align 8
  %5 = alloca ptr, align 8
  %6 = alloca ptr, align 8
  store ptr %0, ptr %4, align 8, !tbaa !4
  store ptr %1, ptr %5, align 8, !tbaa !17
  store ptr %2, ptr %6, align 8, !tbaa !25
  ret void
}

; Function Attrs: alwaysinline nounwind uwtable
define internal void @setgcVraw(ptr noundef %0, ptr noundef %1, i32 noundef %2) #1 {
  %4 = alloca ptr, align 8
  %5 = alloca ptr, align 8
  %6 = alloca i32, align 4
  store ptr %0, ptr %4, align 8, !tbaa !17
  store ptr %1, ptr %5, align 8, !tbaa !27
  store i32 %2, ptr %6, align 4, !tbaa !29
  %7 = load ptr, ptr %5, align 8, !tbaa !27
  %8 = ptrtoint ptr %7 to i64
  %9 = load i32, ptr %6, align 4, !tbaa !29
  %10 = zext i32 %9 to i64
  %11 = shl i64 %10, 47
  %12 = or i64 %8, %11
  %13 = load ptr, ptr %4, align 8, !tbaa !17
  %14 = getelementptr inbounds nuw %struct.GCRef, ptr %13, i32 0, i32 0
  store i64 %12, ptr %14, align 8, !tbaa !16
  ret void
}

; Function Attrs: alwaysinline nounwind uwtable
define internal void @setgcV(ptr noundef %0, ptr noundef %1, ptr noundef %2, i32 noundef %3) #1 {
  %5 = alloca ptr, align 8
  %6 = alloca ptr, align 8
  %7 = alloca ptr, align 8
  %8 = alloca i32, align 4
  store ptr %0, ptr %5, align 8, !tbaa !4
  store ptr %1, ptr %6, align 8, !tbaa !17
  store ptr %2, ptr %7, align 8, !tbaa !27
  store i32 %3, ptr %8, align 4, !tbaa !29
  %9 = load ptr, ptr %6, align 8, !tbaa !17
  %10 = load ptr, ptr %7, align 8, !tbaa !27
  %11 = load i32, ptr %8, align 4, !tbaa !29
  call void @setgcVraw(ptr noundef %9, ptr noundef %10, i32 noundef %11)
  %12 = load ptr, ptr %5, align 8, !tbaa !4
  %13 = load ptr, ptr %6, align 8, !tbaa !17
  call void @checklivetv(ptr noundef %12, ptr noundef %13, ptr noundef @.str.4)
  ret void
}

; Function Attrs: alwaysinline nounwind uwtable
define internal void @setfuncV(ptr noundef %0, ptr noundef %1, ptr noundef %2) #1 {
  %4 = alloca ptr, align 8
  %5 = alloca ptr, align 8
  %6 = alloca ptr, align 8
  store ptr %0, ptr %4, align 8, !tbaa !4
  store ptr %1, ptr %5, align 8, !tbaa !17
  store ptr %2, ptr %6, align 8, !tbaa !34
  %7 = load ptr, ptr %4, align 8, !tbaa !4
  %8 = load ptr, ptr %5, align 8, !tbaa !17
  %9 = load ptr, ptr %6, align 8, !tbaa !34
  call void @setgcV(ptr noundef %7, ptr noundef %8, ptr noundef %9, i32 noundef -9)
  ret void
}

; Function Attrs: nounwind uwtable
define internal i32 @lj_cf_setfenv(ptr noundef %0) #3 {
  %2 = alloca i32, align 4
  %3 = alloca ptr, align 8
  %4 = alloca ptr, align 8
  %5 = alloca ptr, align 8
  %6 = alloca ptr, align 8
  %7 = alloca i32, align 4
  %8 = alloca i32, align 4
  store ptr %0, ptr %3, align 8, !tbaa !4
  call void @llvm.lifetime.start.p0(i64 8, ptr %4) #11
  call void @llvm.lifetime.start.p0(i64 8, ptr %5) #11
  %9 = load ptr, ptr %3, align 8, !tbaa !4
  %10 = call ptr @lj_lib_checktab(ptr noundef %9, i32 noundef 2)
  store ptr %10, ptr %5, align 8, !tbaa !20
  call void @llvm.lifetime.start.p0(i64 8, ptr %6) #11
  %11 = load ptr, ptr %3, align 8, !tbaa !4
  %12 = getelementptr inbounds nuw %struct.lua_State, ptr %11, i32 0, i32 7
  %13 = load ptr, ptr %12, align 8, !tbaa !32
  store ptr %13, ptr %6, align 8, !tbaa !17
  %14 = load ptr, ptr %6, align 8, !tbaa !17
  %15 = load ptr, ptr %3, align 8, !tbaa !4
  %16 = getelementptr inbounds nuw %struct.lua_State, ptr %15, i32 0, i32 8
  %17 = load ptr, ptr %16, align 8, !tbaa !9
  %18 = icmp ult ptr %14, %17
  br i1 %18, label %19, label %25

19:                                               ; preds = %1
  %20 = load ptr, ptr %6, align 8, !tbaa !17
  %21 = load i64, ptr %20, align 8, !tbaa !16
  %22 = ashr i64 %21, 47
  %23 = trunc i64 %22 to i32
  %24 = icmp eq i32 %23, -9
  br i1 %24, label %55, label %25

25:                                               ; preds = %19, %1
  call void @llvm.lifetime.start.p0(i64 4, ptr %7) #11
  %26 = load ptr, ptr %3, align 8, !tbaa !4
  %27 = call i32 @lj_lib_checkint(ptr noundef %26, i32 noundef 1)
  store i32 %27, ptr %7, align 4, !tbaa !29
  %28 = load i32, ptr %7, align 4, !tbaa !29
  %29 = icmp eq i32 %28, 0
  br i1 %29, label %30, label %36

30:                                               ; preds = %25
  %31 = load ptr, ptr %5, align 8, !tbaa !20
  %32 = ptrtoint ptr %31 to i64
  %33 = load ptr, ptr %3, align 8, !tbaa !4
  %34 = getelementptr inbounds nuw %struct.lua_State, ptr %33, i32 0, i32 12
  %35 = getelementptr inbounds nuw %struct.GCRef, ptr %34, i32 0, i32 0
  store i64 %32, ptr %35, align 8, !tbaa !19
  store i32 0, ptr %2, align 4
  store i32 1, ptr %8, align 4
  br label %52

36:                                               ; preds = %25
  %37 = load i32, ptr %7, align 4, !tbaa !29
  %38 = icmp slt i32 %37, 0
  br i1 %38, label %39, label %41

39:                                               ; preds = %36
  %40 = load ptr, ptr %3, align 8, !tbaa !4
  call void @lj_err_arg(ptr noundef %40, i32 noundef 1, i32 noundef 1170) #10
  unreachable

41:                                               ; preds = %36
  %42 = load ptr, ptr %3, align 8, !tbaa !4
  %43 = load i32, ptr %7, align 4, !tbaa !29
  %44 = call ptr @lj_debug_frame(ptr noundef %42, i32 noundef %43, ptr noundef %7)
  store ptr %44, ptr %6, align 8, !tbaa !17
  %45 = load ptr, ptr %6, align 8, !tbaa !17
  %46 = icmp eq ptr %45, null
  br i1 %46, label %47, label %49

47:                                               ; preds = %41
  %48 = load ptr, ptr %3, align 8, !tbaa !4
  call void @lj_err_arg(ptr noundef %48, i32 noundef 1, i32 noundef 1170) #10
  unreachable

49:                                               ; preds = %41
  %50 = load ptr, ptr %6, align 8, !tbaa !17
  %51 = getelementptr inbounds %union.TValue, ptr %50, i32 -1
  store ptr %51, ptr %6, align 8, !tbaa !17
  store i32 0, ptr %8, align 4
  br label %52

52:                                               ; preds = %49, %30
  call void @llvm.lifetime.end.p0(i64 4, ptr %7) #11
  %53 = load i32, ptr %8, align 4
  switch i32 %53, label %102 [
    i32 0, label %54
  ]

54:                                               ; preds = %52
  br label %55

55:                                               ; preds = %54, %19
  %56 = load ptr, ptr %6, align 8, !tbaa !17
  %57 = getelementptr inbounds nuw %struct.GCRef, ptr %56, i32 0, i32 0
  %58 = load i64, ptr %57, align 8, !tbaa !16
  %59 = and i64 %58, 140737488355327
  %60 = inttoptr i64 %59 to ptr
  store ptr %60, ptr %4, align 8, !tbaa !34
  %61 = load ptr, ptr %4, align 8, !tbaa !34
  %62 = getelementptr inbounds nuw %struct.GCfuncC, ptr %61, i32 0, i32 3
  %63 = load i8, ptr %62, align 2, !tbaa !16
  %64 = zext i8 %63 to i32
  %65 = icmp eq i32 %64, 0
  br i1 %65, label %68, label %66

66:                                               ; preds = %55
  %67 = load ptr, ptr %3, align 8, !tbaa !4
  call void @lj_err_caller(ptr noundef %67, i32 noundef 1234) #10
  unreachable

68:                                               ; preds = %55
  %69 = load ptr, ptr %5, align 8, !tbaa !20
  %70 = ptrtoint ptr %69 to i64
  %71 = load ptr, ptr %4, align 8, !tbaa !34
  %72 = getelementptr inbounds nuw %struct.GCfuncL, ptr %71, i32 0, i32 5
  %73 = getelementptr inbounds nuw %struct.GCRef, ptr %72, i32 0, i32 0
  store i64 %70, ptr %73, align 8, !tbaa !16
  %74 = load ptr, ptr %5, align 8, !tbaa !20
  %75 = getelementptr inbounds nuw %struct.GChead, ptr %74, i32 0, i32 1
  %76 = load i8, ptr %75, align 8, !tbaa !16
  %77 = zext i8 %76 to i32
  %78 = and i32 %77, 3
  %79 = icmp ne i32 %78, 0
  br i1 %79, label %80, label %95

80:                                               ; preds = %68
  %81 = load ptr, ptr %4, align 8, !tbaa !34
  %82 = getelementptr inbounds nuw %struct.GChead, ptr %81, i32 0, i32 1
  %83 = load i8, ptr %82, align 8, !tbaa !16
  %84 = zext i8 %83 to i32
  %85 = and i32 %84, 4
  %86 = icmp ne i32 %85, 0
  br i1 %86, label %87, label %95

87:                                               ; preds = %80
  %88 = load ptr, ptr %3, align 8, !tbaa !4
  %89 = getelementptr inbounds nuw %struct.lua_State, ptr %88, i32 0, i32 5
  %90 = getelementptr inbounds nuw %struct.MRef, ptr %89, i32 0, i32 0
  %91 = load i64, ptr %90, align 8, !tbaa !33
  %92 = inttoptr i64 %91 to ptr
  %93 = load ptr, ptr %4, align 8, !tbaa !34
  %94 = load ptr, ptr %5, align 8, !tbaa !20
  call void @lj_gc_barrierf(ptr noundef %92, ptr noundef %93, ptr noundef %94)
  br label %95

95:                                               ; preds = %87, %80, %68
  %96 = load ptr, ptr %3, align 8, !tbaa !4
  %97 = load ptr, ptr %3, align 8, !tbaa !4
  %98 = getelementptr inbounds nuw %struct.lua_State, ptr %97, i32 0, i32 8
  %99 = load ptr, ptr %98, align 8, !tbaa !9
  %100 = getelementptr inbounds nuw %union.TValue, ptr %99, i32 1
  store ptr %100, ptr %98, align 8, !tbaa !9
  %101 = load ptr, ptr %4, align 8, !tbaa !34
  call void @setfuncV(ptr noundef %96, ptr noundef %99, ptr noundef %101)
  store i32 1, ptr %2, align 4
  store i32 1, ptr %8, align 4
  br label %102

102:                                              ; preds = %95, %52
  call void @llvm.lifetime.end.p0(i64 8, ptr %6) #11
  call void @llvm.lifetime.end.p0(i64 8, ptr %5) #11
  call void @llvm.lifetime.end.p0(i64 8, ptr %4) #11
  %103 = load i32, ptr %2, align 4
  ret i32 %103
}