; Function Attrs: nounwind uwtable
define internal range(i32 0, 2) i32 @lj_cf_setfenv(ptr noundef %0) #2 {
  %2 = alloca i32, align 4
  %3 = tail call ptr @lj_lib_checktab(ptr noundef %0, i32 noundef 2) #11
  %4 = getelementptr inbounds nuw i8, ptr %0, i64 32
  %5 = load ptr, ptr %4, align 8, !tbaa !19
  %6 = getelementptr inbounds nuw i8, ptr %0, i64 40
  %7 = load ptr, ptr %6, align 8, !tbaa !4
  %8 = icmp ult ptr %5, %7
  br i1 %8, label %9, label %12

9:                                                ; preds = %1
  %10 = load i64, ptr %5, align 8, !tbaa !14
  %.mask = and i64 %10, -140737488355328
  %11 = icmp eq i64 %.mask, -1266637395197952
  br i1 %11, label %25, label %12

12:                                               ; preds = %9, %1
  call void @llvm.lifetime.start.p0(i64 4, ptr nonnull %2) #11
  %13 = tail call i32 @lj_lib_checkint(ptr noundef nonnull %0, i32 noundef 1) #11
  store i32 %13, ptr %2, align 4, !tbaa !33
  %.not = icmp eq i32 %13, 0
  br i1 %.not, label %.thread, label %16

.thread:                                          ; preds = %12
  %14 = ptrtoint ptr %3 to i64
  %15 = getelementptr inbounds nuw i8, ptr %0, i64 72
  store i64 %14, ptr %15, align 8, !tbaa !15
  call void @llvm.lifetime.end.p0(i64 4, ptr nonnull %2) #11
  br label %51

16:                                               ; preds = %12
  %17 = icmp slt i32 %13, 0
  br i1 %17, label %18, label %19

18:                                               ; preds = %16
  tail call void @lj_err_arg(ptr noundef nonnull %0, i32 noundef 1, i32 noundef 1170) #10
  unreachable

19:                                               ; preds = %16
  %20 = call ptr @lj_debug_frame(ptr noundef nonnull %0, i32 noundef %13, ptr noundef nonnull %2) #11
  %21 = icmp eq ptr %20, null
  br i1 %21, label %22, label %23

22:                                               ; preds = %19
  call void @lj_err_arg(ptr noundef nonnull %0, i32 noundef 1, i32 noundef 1170) #10
  unreachable

23:                                               ; preds = %19
  %24 = getelementptr inbounds i8, ptr %20, i64 -8
  call void @llvm.lifetime.end.p0(i64 4, ptr nonnull %2) #11
  %.pre = load i64, ptr %24, align 8, !tbaa !14
  br label %25

25:                                               ; preds = %23, %9
  %26 = phi i64 [ %10, %9 ], [ %.pre, %23 ]
  %27 = and i64 %26, 140737488355327
  %28 = inttoptr i64 %27 to ptr
  %29 = getelementptr inbounds nuw i8, ptr %28, i64 10
  %30 = load i8, ptr %29, align 2, !tbaa !14
  %31 = icmp eq i8 %30, 0
  br i1 %31, label %33, label %32

32:                                               ; preds = %25
  call void @lj_err_caller(ptr noundef nonnull %0, i32 noundef 1234) #10
  unreachable

33:                                               ; preds = %25
  %34 = ptrtoint ptr %3 to i64
  %35 = getelementptr inbounds nuw i8, ptr %28, i64 16
  store i64 %34, ptr %35, align 8, !tbaa !14
  %36 = getelementptr inbounds nuw i8, ptr %3, i64 8
  %37 = load i8, ptr %36, align 8, !tbaa !14
  %38 = and i8 %37, 3
  %.not33 = icmp eq i8 %38, 0
  br i1 %.not33, label %47, label %39

39:                                               ; preds = %33
  %40 = getelementptr inbounds nuw i8, ptr %28, i64 8
  %41 = load i8, ptr %40, align 8, !tbaa !14
  %42 = and i8 %41, 4
  %.not34 = icmp eq i8 %42, 0
  br i1 %.not34, label %47, label %43

43:                                               ; preds = %39
  %44 = getelementptr inbounds nuw i8, ptr %0, i64 16
  %45 = load i64, ptr %44, align 8, !tbaa !20
  %46 = inttoptr i64 %45 to ptr
  call void @lj_gc_barrierf(ptr noundef %46, ptr noundef nonnull %28, ptr noundef nonnull %3) #11
  br label %47

47:                                               ; preds = %43, %39, %33
  %48 = load ptr, ptr %6, align 8, !tbaa !4
  %49 = getelementptr inbounds nuw i8, ptr %48, i64 8
  store ptr %49, ptr %6, align 8, !tbaa !4
  %50 = or disjoint i64 %27, -1266637395197952
  store i64 %50, ptr %48, align 8, !tbaa !14
  br label %51

51:                                               ; preds = %.thread, %47
  %.129 = phi i32 [ 1, %47 ], [ 0, %.thread ]
  ret i32 %.129
}